target datalayout = "e-m:e-p270:32:32-p271:32:32-p272:64:64-i64:64-i128:128-f80:128-n8:16:32:64-S128"
target triple = "x86_64-pc-linux-gnu"

%struct.record_functions_st = type { ptr, ptr, ptr, ptr, ptr, ptr, ptr, ptr, ptr, ptr, ptr, ptr, ptr, ptr, ptr, ptr, ptr, ptr }
%struct.tls_buffer_st = type { ptr, i64, i64, i64, i64, i32, i32 }
%struct.tls_rl_record_st = type { i32, i32, i64, i64, i64, ptr, ptr, ptr, i16, [8 x i8] }
%struct.ossl_record_layer_st = type { ptr, ptr, i32, i32, i32, i32, i32, ptr, i16, ptr, ptr, ptr, i64, i32, [33 x %struct.tls_buffer_st], i64, i64, %struct.tls_buffer_st, [32 x %struct.tls_rl_record_st], i64, i64, i64, i32, ptr, i64, [8 x i8], i32, i32, i64, i32, ptr, ptr, i64, ptr, ptr, i32, i32, i32, i64, i64, i64, [64 x i8], i32, i32, i32, ptr, ptr, i32, i32, i64, ptr, ptr, %struct.dtls_bitmap_st, %struct.dtls_bitmap_st, i32, ptr, ptr, ptr, ptr, ptr, i64, ptr }
%struct.dtls_bitmap_st = type { i64, [8 x i8] }
%struct.ossl_record_template_st = type { i8, i32, ptr, i64 }

@.str = private unnamed_addr constant [43 x i8] c"../openssl/ssl/record/methods/tls_common.c\00", align 1
@__func__.tls_post_encryption_processing_default = private unnamed_addr constant [39 x i8] c"tls_post_encryption_processing_default\00", align 1

; Function Attrs: nounwind uwtable
define i32 @tls_post_encryption_processing_default(ptr noundef %0, i64 noundef %1, ptr noundef %2, ptr noundef %3, ptr noundef %4) #0 {
  %6 = alloca i32, align 4
  %7 = alloca ptr, align 8
  %8 = alloca i64, align 8
  %9 = alloca ptr, align 8
  %10 = alloca ptr, align 8
  %11 = alloca ptr, align 8
  %12 = alloca i64, align 8
  %13 = alloca i64, align 8
  %14 = alloca i64, align 8
  %15 = alloca i32, align 4
  %16 = alloca ptr, align 8
  %17 = alloca ptr, align 8
  %18 = alloca i8, align 1
  store ptr %0, ptr %7, align 8, !tbaa !16
  store i64 %1, ptr %8, align 8, !tbaa !38
  store ptr %2, ptr %9, align 8, !tbaa !155
  store ptr %3, ptr %10, align 8, !tbaa !157
  store ptr %4, ptr %11, align 8, !tbaa !13
  call void @llvm.lifetime.start.p0(i64 8, ptr %12) #10
  call void @llvm.lifetime.start.p0(i64 8, ptr %13) #10
  call void @llvm.lifetime.start.p0(i64 8, ptr %14) #10
  %19 = load ptr, ptr %7, align 8, !tbaa !16
  %20 = getelementptr inbounds nuw %struct.ossl_record_layer_st, ptr %19, i32 0, i32 2
  %21 = load i32, ptr %20, align 8, !tbaa !43
  %22 = icmp ne i32 %21, 0
  %23 = select i1 %22, i32 13, i32 5
  %24 = sext i32 %23 to i64
  store i64 %24, ptr %14, align 8, !tbaa !38
  %25 = load ptr, ptr %10, align 8, !tbaa !157
  %26 = call i32 @WPACKET_get_length(ptr noundef %25, ptr noundef %12)
  %27 = icmp ne i32 %26, 0
  br i1 %27, label %28, label %66

28:                                               ; preds = %5
  %29 = load i64, ptr %12, align 8, !tbaa !38
  %30 = add i64 %29, 80
  %31 = load i64, ptr %8, align 8, !tbaa !38
  %32 = sub i64 %30, %31
  %33 = load ptr, ptr %11, align 8, !tbaa !13
  %34 = getelementptr inbounds nuw %struct.tls_rl_record_st, ptr %33, i32 0, i32 2
  %35 = load i64, ptr %34, align 8, !tbaa !82
  %36 = icmp uge i64 %32, %35
  %37 = zext i1 %36 to i32
  %38 = icmp ne i32 %37, 0
  %39 = xor i1 %38, true
  %40 = xor i1 %39, true
  %41 = zext i1 %40 to i32
  %42 = sext i32 %41 to i64
  %43 = call i64 @llvm.expect.i64(i64 %42, i64 1)
  %44 = icmp ne i64 %43, 0
  br i1 %44, label %45, label %66

45:                                               ; preds = %28
  %46 = load i64, ptr %12, align 8, !tbaa !38
  %47 = load ptr, ptr %11, align 8, !tbaa !13
  %48 = getelementptr inbounds nuw %struct.tls_rl_record_st, ptr %47, i32 0, i32 2
  %49 = load i64, ptr %48, align 8, !tbaa !82
  %50 = icmp ugt i64 %46, %49
  br i1 %50, label %66, label %51

51:                                               ; preds = %45
  %52 = load ptr, ptr %11, align 8, !tbaa !13
  %53 = getelementptr inbounds nuw %struct.tls_rl_record_st, ptr %52, i32 0, i32 2
  %54 = load i64, ptr %53, align 8, !tbaa !82
  %55 = load i64, ptr %12, align 8, !tbaa !38
  %56 = icmp ugt i64 %54, %55
  br i1 %56, label %57, label %68

57:                                               ; preds = %51
  %58 = load ptr, ptr %10, align 8, !tbaa !157
  %59 = load ptr, ptr %11, align 8, !tbaa !13
  %60 = getelementptr inbounds nuw %struct.tls_rl_record_st, ptr %59, i32 0, i32 2
  %61 = load i64, ptr %60, align 8, !tbaa !82
  %62 = load i64, ptr %12, align 8, !tbaa !38
  %63 = sub i64 %61, %62
  %64 = call i32 @WPACKET_allocate_bytes(ptr noundef %58, i64 noundef %63, ptr noundef null)
  %65 = icmp ne i32 %64, 0
  br i1 %65, label %68, label %66

66:                                               ; preds = %57, %45, %28, %5
  call void @ERR_new()
  call void @ERR_set_debug(ptr noundef @.str, i32 noundef 1701, ptr noundef @__func__.tls_post_encryption_processing_default)
  %67 = load ptr, ptr %7, align 8, !tbaa !16
  call void (ptr, i32, i32, ptr, ...) @ossl_rlayer_fatal(ptr noundef %67, i32 noundef 80, i32 noundef 786691, ptr noundef null)
  store i32 0, ptr %6, align 4
  store i32 1, ptr %15, align 4
  br label %173

68:                                               ; preds = %57, %51
  %69 = load ptr, ptr %7, align 8, !tbaa !16
  %70 = getelementptr inbounds nuw %struct.ossl_record_layer_st, ptr %69, i32 0, i32 42
  %71 = load i32, ptr %70, align 8, !tbaa !39
  %72 = icmp ne i32 %71, 0
  br i1 %72, label %73, label %103

73:                                               ; preds = %68
  %74 = load i64, ptr %8, align 8, !tbaa !38
  %75 = icmp ne i64 %74, 0
  br i1 %75, label %76, label %103

76:                                               ; preds = %73
  call void @llvm.lifetime.start.p0(i64 8, ptr %16) #10
  %77 = load ptr, ptr %10, align 8, !tbaa !157
  %78 = load i64, ptr %8, align 8, !tbaa !38
  %79 = call i32 @WPACKET_allocate_bytes(ptr noundef %77, i64 noundef %78, ptr noundef %16)
  %80 = icmp ne i32 %79, 0
  br i1 %80, label %81, label %92

81:                                               ; preds = %76
  %82 = load ptr, ptr %7, align 8, !tbaa !16
  %83 = getelementptr inbounds nuw %struct.ossl_record_layer_st, ptr %82, i32 0, i32 61
  %84 = load ptr, ptr %83, align 8, !tbaa !73
  %85 = getelementptr inbounds nuw %struct.record_functions_st, ptr %84, i32 0, i32 2
  %86 = load ptr, ptr %85, align 8, !tbaa !97
  %87 = load ptr, ptr %7, align 8, !tbaa !16
  %88 = load ptr, ptr %11, align 8, !tbaa !13
  %89 = load ptr, ptr %16, align 8, !tbaa !15
  %90 = call i32 %86(ptr noundef %87, ptr noundef %88, ptr noundef %89, i32 noundef 1)
  %91 = icmp ne i32 %90, 0
  br i1 %91, label %94, label %92

92:                                               ; preds = %81, %76
  call void @ERR_new()
  call void @ERR_set_debug(ptr noundef @.str, i32 noundef 1709, ptr noundef @__func__.tls_post_encryption_processing_default)
  %93 = load ptr, ptr %7, align 8, !tbaa !16
  call void (ptr, i32, i32, ptr, ...) @ossl_rlayer_fatal(ptr noundef %93, i32 noundef 80, i32 noundef 786691, ptr noundef null)
  store i32 0, ptr %6, align 4
  store i32 1, ptr %15, align 4
  br label %100

94:                                               ; preds = %81
  %95 = load i64, ptr %8, align 8, !tbaa !38
  %96 = load ptr, ptr %11, align 8, !tbaa !13
  %97 = getelementptr inbounds nuw %struct.tls_rl_record_st, ptr %96, i32 0, i32 2
  %98 = load i64, ptr %97, align 8, !tbaa !82
  %99 = add i64 %98, %95
  store i64 %99, ptr %97, align 8, !tbaa !82
  store i32 0, ptr %15, align 4
  br label %100

100:                                              ; preds = %94, %92
  call void @llvm.lifetime.end.p0(i64 8, ptr %16) #10
  %101 = load i32, ptr %15, align 4
  switch i32 %101, label %173 [
    i32 0, label %102
  ]

102:                                              ; preds = %100
  br label %103

103:                                              ; preds = %102, %73, %68
  %104 = load ptr, ptr %10, align 8, !tbaa !157
  %105 = call i32 @WPACKET_get_length(ptr noundef %104, ptr noundef %13)
  %106 = icmp ne i32 %105, 0
  br i1 %106, label %107, label %111

107:                                              ; preds = %103
  %108 = load ptr, ptr %10, align 8, !tbaa !157
  %109 = call i32 @WPACKET_close(ptr noundef %108)
  %110 = icmp ne i32 %109, 0
  br i1 %110, label %113, label %111

111:                                              ; preds = %107, %103
  call void @ERR_new()
  call void @ERR_set_debug(ptr noundef @.str, i32 noundef 1718, ptr noundef @__func__.tls_post_encryption_processing_default)
  %112 = load ptr, ptr %7, align 8, !tbaa !16
  call void (ptr, i32, i32, ptr, ...) @ossl_rlayer_fatal(ptr noundef %112, i32 noundef 80, i32 noundef 786691, ptr noundef null)
  store i32 0, ptr %6, align 4
  store i32 1, ptr %15, align 4
  br label %173

113:                                              ; preds = %107
  %114 = load ptr, ptr %7, align 8, !tbaa !16
  %115 = getelementptr inbounds nuw %struct.ossl_record_layer_st, ptr %114, i32 0, i32 57
  %116 = load ptr, ptr %115, align 8, !tbaa !83
  %117 = icmp ne ptr %116, null
  br i1 %117, label %118, label %161

118:                                              ; preds = %113
  call void @llvm.lifetime.start.p0(i64 8, ptr %17) #10
  %119 = load ptr, ptr %10, align 8, !tbaa !157
  %120 = call ptr @WPACKET_get_curr(ptr noundef %119)
  %121 = load i64, ptr %13, align 8, !tbaa !38
  %122 = sub i64 0, %121
  %123 = getelementptr inbounds i8, ptr %120, i64 %122
  %124 = load i64, ptr %14, align 8, !tbaa !38
  %125 = sub i64 0, %124
  %126 = getelementptr inbounds i8, ptr %123, i64 %125
  store ptr %126, ptr %17, align 8, !tbaa !15
  %127 = load ptr, ptr %7, align 8, !tbaa !16
  %128 = getelementptr inbounds nuw %struct.ossl_record_layer_st, ptr %127, i32 0, i32 57
  %129 = load ptr, ptr %128, align 8, !tbaa !83
  %130 = load ptr, ptr %11, align 8, !tbaa !13
  %131 = getelementptr inbounds nuw %struct.tls_rl_record_st, ptr %130, i32 0, i32 0
  %132 = load i32, ptr %131, align 8, !tbaa !81
  %133 = load ptr, ptr %17, align 8, !tbaa !15
  %134 = load i64, ptr %14, align 8, !tbaa !38
  %135 = load ptr, ptr %7, align 8, !tbaa !16
  %136 = getelementptr inbounds nuw %struct.ossl_record_layer_st, ptr %135, i32 0, i32 55
  %137 = load ptr, ptr %136, align 8, !tbaa !53
  call void %129(i32 noundef 1, i32 noundef %132, i32 noundef 256, ptr noundef %133, i64 noundef %134, ptr noundef %137)
  %138 = load ptr, ptr %7, align 8, !tbaa !16
  %139 = getelementptr inbounds nuw %struct.ossl_record_layer_st, ptr %138, i32 0, i32 3
  %140 = load i32, ptr %139, align 4, !tbaa !44
  %141 = icmp eq i32 %140, 772
  br i1 %141, label %142, label %160

142:                                              ; preds = %118
  %143 = load ptr, ptr %7, align 8, !tbaa !16
  %144 = getelementptr inbounds nuw %struct.ossl_record_layer_st, ptr %143, i32 0, i32 30
  %145 = load ptr, ptr %144, align 8, !tbaa !88
  %146 = icmp ne ptr %145, null
  br i1 %146, label %147, label %160

147:                                              ; preds = %142
  call void @llvm.lifetime.start.p0(i64 1, ptr %18) #10
  %148 = load ptr, ptr %9, align 8, !tbaa !155
  %149 = getelementptr inbounds nuw %struct.ossl_record_template_st, ptr %148, i32 0, i32 0
  %150 = load i8, ptr %149, align 8, !tbaa !159
  store i8 %150, ptr %18, align 1, !tbaa !91
  %151 = load ptr, ptr %7, align 8, !tbaa !16
  %152 = getelementptr inbounds nuw %struct.ossl_record_layer_st, ptr %151, i32 0, i32 57
  %153 = load ptr, ptr %152, align 8, !tbaa !83
  %154 = load ptr, ptr %11, align 8, !tbaa !13
  %155 = getelementptr inbounds nuw %struct.tls_rl_record_st, ptr %154, i32 0, i32 0
  %156 = load i32, ptr %155, align 8, !tbaa !81
  %157 = load ptr, ptr %7, align 8, !tbaa !16
  %158 = getelementptr inbounds nuw %struct.ossl_record_layer_st, ptr %157, i32 0, i32 55
  %159 = load ptr, ptr %158, align 8, !tbaa !53
  call void %153(i32 noundef 1, i32 noundef %156, i32 noundef 257, ptr noundef %18, i64 noundef 1, ptr noundef %159)
  call void @llvm.lifetime.end.p0(i64 1, ptr %18) #10
  br label %160

160:                                              ; preds = %147, %142, %118
  call void @llvm.lifetime.end.p0(i64 8, ptr %17) #10
  br label %161

161:                                              ; preds = %160, %113
  %162 = load ptr, ptr %10, align 8, !tbaa !157
  %163 = call i32 @WPACKET_finish(ptr noundef %162)
  %164 = icmp ne i32 %163, 0
  br i1 %164, label %167, label %165

165:                                              ; preds = %161
  call void @ERR_new()
  call void @ERR_set_debug(ptr noundef @.str, i32 noundef 1738, ptr noundef @__func__.tls_post_encryption_processing_default)
  %166 = load ptr, ptr %7, align 8, !tbaa !16
  call void (ptr, i32, i32, ptr, ...) @ossl_rlayer_fatal(ptr noundef %166, i32 noundef 80, i32 noundef 786691, ptr noundef null)
  store i32 0, ptr %6, align 4
  store i32 1, ptr %15, align 4
  br label %173

167:                                              ; preds = %161
  %168 = load i64, ptr %14, align 8, !tbaa !38
  %169 = load ptr, ptr %11, align 8, !tbaa !13
  %170 = getelementptr inbounds nuw %struct.tls_rl_record_st, ptr %169, i32 0, i32 2
  %171 = load i64, ptr %170, align 8, !tbaa !82
  %172 = add i64 %171, %168
  store i64 %172, ptr %170, align 8, !tbaa !82
  store i32 1, ptr %6, align 4
  store i32 1, ptr %15, align 4
  br label %173

173:                                              ; preds = %167, %165, %111, %100, %66
  call void @llvm.lifetime.end.p0(i64 8, ptr %14) #10
  call void @llvm.lifetime.end.p0(i64 8, ptr %13) #10
  call void @llvm.lifetime.end.p0(i64 8, ptr %12) #10
  %174 = load i32, ptr %6, align 4
  ret i32 %174
}