; Function Attrs: nounwind uwtable
define range(i32 0, 2) i32 @tls_post_encryption_processing_default(ptr noundef %0, i64 noundef %1, ptr noundef readonly captures(none) %2, ptr noundef %3, ptr noundef %4) local_unnamed_addr #0 {
  %6 = alloca i64, align 8
  %7 = alloca i64, align 8
  %8 = alloca ptr, align 8
  %9 = alloca i8, align 1
  call void @llvm.lifetime.start.p0(i64 8, ptr nonnull %6) #13
  call void @llvm.lifetime.start.p0(i64 8, ptr nonnull %7) #13
  %10 = getelementptr inbounds nuw i8, ptr %0, i64 16
  %11 = load i32, ptr %10, align 8, !tbaa !30
  %.not = icmp eq i32 %11, 0
  %.neg = select i1 %.not, i64 -5, i64 -13
  %12 = select i1 %.not, i64 5, i64 13
  %13 = call i32 @WPACKET_get_length(ptr noundef %3, ptr noundef nonnull %6) #13
  %.not46 = icmp eq i32 %13, 0
  br i1 %.not46, label %25, label %14

14:                                               ; preds = %5
  %15 = load i64, ptr %6, align 8, !tbaa !24
  %reass.sub = sub i64 %15, %1
  %16 = add i64 %reass.sub, 80
  %17 = getelementptr inbounds nuw i8, ptr %4, i64 8
  %18 = load i64, ptr %17, align 8, !tbaa !65
  %.not47 = icmp ult i64 %16, %18
  %19 = icmp ugt i64 %15, %18
  %or.cond56 = or i1 %.not47, %19
  br i1 %or.cond56, label %25, label %20, !prof !132

20:                                               ; preds = %14
  %21 = icmp ugt i64 %18, %15
  br i1 %21, label %22, label %26

22:                                               ; preds = %20
  %23 = sub nuw i64 %18, %15
  %24 = call i32 @WPACKET_allocate_bytes(ptr noundef %3, i64 noundef %23, ptr noundef null) #13
  %.not48 = icmp eq i32 %24, 0
  br i1 %.not48, label %25, label %26

25:                                               ; preds = %22, %14, %5
  call void @ERR_new() #13
  call void @ERR_set_debug(ptr noundef nonnull @.str, i32 noundef 1701, ptr noundef nonnull @__func__.tls_post_encryption_processing_default) #13
  call void (ptr, i32, i32, ptr, ...) @ossl_rlayer_fatal(ptr noundef nonnull %0, i32 noundef 80, i32 noundef 786691, ptr noundef null)
  br label %78

26:                                               ; preds = %22, %20
  %27 = getelementptr inbounds nuw i8, ptr %0, i64 4272
  %28 = load i32, ptr %27, align 8, !tbaa !25
  %29 = icmp ne i32 %28, 0
  %30 = icmp ne i64 %1, 0
  %or.cond = and i1 %30, %29
  br i1 %or.cond, label %31, label %43

31:                                               ; preds = %26
  call void @llvm.lifetime.start.p0(i64 8, ptr nonnull %8) #13
  %32 = call i32 @WPACKET_allocate_bytes(ptr noundef %3, i64 noundef %1, ptr noundef nonnull %8) #13
  %.not49 = icmp eq i32 %32, 0
  br i1 %.not49, label %40, label %33

33:                                               ; preds = %31
  %34 = getelementptr inbounds nuw i8, ptr %0, i64 4424
  %35 = load ptr, ptr %34, align 8, !tbaa !56
  %36 = getelementptr inbounds nuw i8, ptr %35, i64 16
  %37 = load ptr, ptr %36, align 8, !tbaa !78
  %38 = load ptr, ptr %8, align 8, !tbaa !27
  %39 = call i32 %37(ptr noundef nonnull %0, ptr noundef nonnull %4, ptr noundef %38, i32 noundef 1) #13
  %.not50 = icmp eq i32 %39, 0
  br i1 %.not50, label %40, label %.critedge

40:                                               ; preds = %33, %31
  call void @ERR_new() #13
  call void @ERR_set_debug(ptr noundef nonnull @.str, i32 noundef 1709, ptr noundef nonnull @__func__.tls_post_encryption_processing_default) #13
  call void (ptr, i32, i32, ptr, ...) @ossl_rlayer_fatal(ptr noundef nonnull %0, i32 noundef 80, i32 noundef 786691, ptr noundef null)
  call void @llvm.lifetime.end.p0(i64 8, ptr nonnull %8) #13
  br label %78

.critedge:                                        ; preds = %33
  %41 = load i64, ptr %17, align 8, !tbaa !65
  %42 = add i64 %41, %1
  store i64 %42, ptr %17, align 8, !tbaa !65
  call void @llvm.lifetime.end.p0(i64 8, ptr nonnull %8) #13
  br label %43

43:                                               ; preds = %.critedge, %26
  %44 = call i32 @WPACKET_get_length(ptr noundef %3, ptr noundef nonnull %7) #13
  %.not51 = icmp eq i32 %44, 0
  br i1 %.not51, label %47, label %45

45:                                               ; preds = %43
  %46 = call i32 @WPACKET_close(ptr noundef %3) #13
  %.not52 = icmp eq i32 %46, 0
  br i1 %.not52, label %47, label %48

47:                                               ; preds = %45, %43
  call void @ERR_new() #13
  call void @ERR_set_debug(ptr noundef nonnull @.str, i32 noundef 1718, ptr noundef nonnull @__func__.tls_post_encryption_processing_default) #13
  call void (ptr, i32, i32, ptr, ...) @ossl_rlayer_fatal(ptr noundef nonnull %0, i32 noundef 80, i32 noundef 786691, ptr noundef null)
  br label %78

48:                                               ; preds = %45
  %49 = getelementptr inbounds nuw i8, ptr %0, i64 4392
  %50 = load ptr, ptr %49, align 8, !tbaa !66
  %.not53 = icmp eq ptr %50, null
  br i1 %.not53, label %72, label %51

51:                                               ; preds = %48
  %52 = call ptr @WPACKET_get_curr(ptr noundef %3) #13
  %53 = load i64, ptr %7, align 8, !tbaa !24
  %54 = sub i64 0, %53
  %55 = getelementptr inbounds i8, ptr %52, i64 %54
  %56 = getelementptr inbounds i8, ptr %55, i64 %.neg
  %57 = load ptr, ptr %49, align 8, !tbaa !66
  %58 = load i32, ptr %4, align 8, !tbaa !64
  %59 = getelementptr inbounds nuw i8, ptr %0, i64 4376
  %60 = load ptr, ptr %59, align 8, !tbaa !36
  call void %57(i32 noundef 1, i32 noundef %58, i32 noundef 256, ptr noundef nonnull %56, i64 noundef %12, ptr noundef %60) #13
  %61 = getelementptr inbounds nuw i8, ptr %0, i64 20
  %62 = load i32, ptr %61, align 4, !tbaa !31
  %63 = icmp eq i32 %62, 772
  br i1 %63, label %64, label %72

64:                                               ; preds = %51
  %65 = getelementptr inbounds nuw i8, ptr %0, i64 4128
  %66 = load ptr, ptr %65, align 8, !tbaa !71
  %.not54 = icmp eq ptr %66, null
  br i1 %.not54, label %72, label %67

67:                                               ; preds = %64
  call void @llvm.lifetime.start.p0(i64 1, ptr nonnull %9) #13
  %68 = load i8, ptr %2, align 8, !tbaa !127
  store i8 %68, ptr %9, align 1, !tbaa !59
  %69 = load ptr, ptr %49, align 8, !tbaa !66
  %70 = load i32, ptr %4, align 8, !tbaa !64
  %71 = load ptr, ptr %59, align 8, !tbaa !36
  call void %69(i32 noundef 1, i32 noundef %70, i32 noundef 257, ptr noundef nonnull %9, i64 noundef 1, ptr noundef %71) #13
  call void @llvm.lifetime.end.p0(i64 1, ptr nonnull %9) #13
  br label %72

72:                                               ; preds = %51, %64, %67, %48
  %73 = call i32 @WPACKET_finish(ptr noundef %3) #13
  %.not55 = icmp eq i32 %73, 0
  br i1 %.not55, label %74, label %75

74:                                               ; preds = %72
  call void @ERR_new() #13
  call void @ERR_set_debug(ptr noundef nonnull @.str, i32 noundef 1738, ptr noundef nonnull @__func__.tls_post_encryption_processing_default) #13
  call void (ptr, i32, i32, ptr, ...) @ossl_rlayer_fatal(ptr noundef nonnull %0, i32 noundef 80, i32 noundef 786691, ptr noundef null)
  br label %78

75:                                               ; preds = %72
  %76 = load i64, ptr %17, align 8, !tbaa !65
  %77 = add i64 %76, %12
  store i64 %77, ptr %17, align 8, !tbaa !65
  br label %78

78:                                               ; preds = %40, %75, %74, %47, %25
  %.0 = phi i32 [ 0, %25 ], [ 1, %75 ], [ 0, %74 ], [ 0, %47 ], [ 0, %40 ]
  call void @llvm.lifetime.end.p0(i64 8, ptr nonnull %7) #13
  call void @llvm.lifetime.end.p0(i64 8, ptr nonnull %6) #13
  ret i32 %.0
}